; Function Attrs: nofree nounwind uwtable
define noalias noundef ptr @Saig_ManBmcComputeMappingRefs(ptr noundef readonly captures(none) %0, ptr noundef readonly captures(none) %1) local_unnamed_addr #11 {
  %3 = getelementptr i8, ptr %0, i64 32
  %.val35 = load ptr, ptr %3, align 8, !tbaa !31
  %4 = getelementptr i8, ptr %.val35, i64 4
  %.val35.val = load i32, ptr %4, align 4, !tbaa !32
  %5 = tail call noalias dereferenceable_or_null(16) ptr @malloc(i64 noundef 16) #27
  %6 = add i32 %.val35.val, -1
  %or.cond.i.i = icmp ult i32 %6, 15
  %spec.store.select.i.i = select i1 %or.cond.i.i, i32 16, i32 %.val35.val
  %7 = getelementptr inbounds nuw i8, ptr %5, i64 4
  store i32 %spec.store.select.i.i, ptr %5, align 8, !tbaa !82
  %.not.i.i = icmp eq i32 %spec.store.select.i.i, 0
  br i1 %.not.i.i, label %Vec_IntAlloc.exit.thread.i, label %Vec_IntAlloc.exit.i

Vec_IntAlloc.exit.thread.i:                       ; preds = %2
  %8 = getelementptr inbounds nuw i8, ptr %5, i64 8
  store ptr null, ptr %8, align 8, !tbaa !71
  store i32 %.val35.val, ptr %7, align 4, !tbaa !83
  br label %Vec_IntStart.exit

Vec_IntAlloc.exit.i:                              ; preds = %2
  %9 = sext i32 %spec.store.select.i.i to i64
  %10 = shl nsw i64 %9, 2
  %11 = tail call noalias ptr @malloc(i64 noundef %10) #27
  %12 = getelementptr inbounds nuw i8, ptr %5, i64 8
  store ptr %11, ptr %12, align 8, !tbaa !71
  store i32 %.val35.val, ptr %7, align 4, !tbaa !83
  %.not.i = icmp eq ptr %11, null
  br i1 %.not.i, label %Vec_IntStart.exit, label %13

13:                                               ; preds = %Vec_IntAlloc.exit.i
  %14 = sext i32 %.val35.val to i64
  %15 = shl nsw i64 %14, 2
  tail call void @llvm.memset.p0.i64(ptr nonnull align 4 %11, i8 0, i64 %15, i1 false)
  br label %Vec_IntStart.exit

Vec_IntStart.exit:                                ; preds = %Vec_IntAlloc.exit.thread.i, %Vec_IntAlloc.exit.i, %13
  %.val42 = phi ptr [ null, %Vec_IntAlloc.exit.thread.i ], [ null, %Vec_IntAlloc.exit.i ], [ %11, %13 ]
  %16 = getelementptr inbounds nuw i8, ptr %0, i64 24
  %17 = load ptr, ptr %16, align 8, !tbaa !21
  %18 = getelementptr i8, ptr %17, i64 4
  %.val3444 = load i32, ptr %18, align 4, !tbaa !32
  %19 = icmp sgt i32 %.val3444, 0
  br i1 %19, label %.lr.ph, label %.critedge.preheader

.lr.ph:                                           ; preds = %Vec_IntStart.exit
  %20 = getelementptr i8, ptr %17, i64 8
  %.val32 = load ptr, ptr %20, align 8, !tbaa !23
  br label %25

.critedge.preheader:                              ; preds = %Aig_ObjFaninId0.exit, %Vec_IntStart.exit
  %21 = icmp sgt i32 %.val35.val, 0
  br i1 %21, label %.lr.ph49, label %.critedge2

.lr.ph49:                                         ; preds = %.critedge.preheader
  %22 = getelementptr i8, ptr %.val35, i64 8
  %.val = load ptr, ptr %22, align 8, !tbaa !23
  %23 = getelementptr i8, ptr %1, i64 8
  %24 = zext nneg i32 %.val35.val to i64
  br label %42

25:                                               ; preds = %.lr.ph, %Aig_ObjFaninId0.exit
  %indvars.iv = phi i64 [ 0, %.lr.ph ], [ %indvars.iv.next, %Aig_ObjFaninId0.exit ]
  %26 = getelementptr inbounds nuw ptr, ptr %.val32, i64 %indvars.iv
  %27 = load ptr, ptr %26, align 8, !tbaa !25
  %28 = getelementptr i8, ptr %27, i64 8
  %.val40 = load ptr, ptr %28, align 8, !tbaa !26
  %.not.i43 = icmp eq ptr %.val40, null
  br i1 %.not.i43, label %Aig_ObjFaninId0.exit, label %29

29:                                               ; preds = %25
  %30 = ptrtoint ptr %.val40 to i64
  %31 = and i64 %30, -2
  %32 = inttoptr i64 %31 to ptr
  %33 = getelementptr inbounds nuw i8, ptr %32, i64 36
  %34 = load i32, ptr %33, align 4, !tbaa !27
  %35 = sext i32 %34 to i64
  br label %Aig_ObjFaninId0.exit

Aig_ObjFaninId0.exit:                             ; preds = %25, %29
  %36 = phi i64 [ %35, %29 ], [ -1, %25 ]
  %37 = getelementptr inbounds i32, ptr %.val42, i64 %36
  %38 = load i32, ptr %37, align 4, !tbaa !28
  %39 = add nsw i32 %38, 1
  store i32 %39, ptr %37, align 4, !tbaa !28
  %indvars.iv.next = add nuw nsw i64 %indvars.iv, 1
  %.val34 = load i32, ptr %18, align 4, !tbaa !32
  %40 = sext i32 %.val34 to i64
  %41 = icmp slt i64 %indvars.iv.next, %40
  br i1 %41, label %25, label %.critedge.preheader, !llvm.loop !84

42:                                               ; preds = %.lr.ph49, %.critedge
  %indvars.iv54 = phi i64 [ 0, %.lr.ph49 ], [ %indvars.iv.next55, %.critedge ]
  %43 = getelementptr inbounds nuw ptr, ptr %.val, i64 %indvars.iv54
  %44 = load ptr, ptr %43, align 8, !tbaa !25
  %45 = icmp eq ptr %44, null
  br i1 %45, label %.critedge, label %46

46:                                               ; preds = %42
  %47 = getelementptr i8, ptr %44, i64 24
  %.val36 = load i64, ptr %47, align 8
  %48 = trunc i64 %.val36 to i32
  %49 = and i32 %48, 7
  %50 = add nsw i32 %49, -7
  %narrow.i = icmp ult i32 %50, -2
  br i1 %narrow.i, label %.critedge, label %51

51:                                               ; preds = %46
  %.val38 = load ptr, ptr %23, align 8, !tbaa !71
  %52 = getelementptr inbounds nuw i32, ptr %.val38, i64 %indvars.iv54
  %53 = load i32, ptr %52, align 4, !tbaa !28
  %54 = icmp eq i32 %53, 0
  br i1 %54, label %.critedge, label %55

55:                                               ; preds = %51
  %56 = sext i32 %53 to i64
  %57 = getelementptr inbounds i32, ptr %.val38, i64 %56
  br label %58

58:                                               ; preds = %55, %67
  %indvars.iv51 = phi i64 [ 0, %55 ], [ %indvars.iv.next52, %67 ]
  %indvars.iv.next52 = add nuw nsw i64 %indvars.iv51, 1
  %59 = getelementptr inbounds nuw i32, ptr %57, i64 %indvars.iv.next52
  %60 = load i32, ptr %59, align 4, !tbaa !28
  %61 = icmp sgt i32 %60, -1
  br i1 %61, label %62, label %67

62:                                               ; preds = %58
  %63 = zext nneg i32 %60 to i64
  %64 = getelementptr inbounds nuw i32, ptr %.val42, i64 %63
  %65 = load i32, ptr %64, align 4, !tbaa !28
  %66 = add nsw i32 %65, 1
  store i32 %66, ptr %64, align 4, !tbaa !28
  br label %67

67:                                               ; preds = %58, %62
  %exitcond.not = icmp eq i64 %indvars.iv.next52, 4
  br i1 %exitcond.not, label %.critedge, label %58, !llvm.loop !85

.critedge:                                        ; preds = %67, %46, %42, %51
  %indvars.iv.next55 = add nuw nsw i64 %indvars.iv54, 1
  %68 = icmp samesign ult i64 %indvars.iv.next55, %24
  br i1 %68, label %42, label %.critedge2, !llvm.loop !86

.critedge2:                                       ; preds = %.critedge, %.critedge.preheader
  ret ptr %5
}